target datalayout = "e-m:e-p270:32:32-p271:32:32-p272:64:64-i64:64-i128:128-f80:128-n8:16:32:64-S128"
target triple = "x86_64-pc-linux-gnu"

%struct.randpkt_example = type { ptr, ptr, i32, i32, ptr, i32, ptr, i32, ptr, ptr, i32 }

@.str.6 = private unnamed_addr constant [1 x i8] zeroinitializer, align 1
@.str.7 = private unnamed_addr constant [8 x i8] c"randpkt\00", align 1
@.str.8 = private unnamed_addr constant [28 x i8] c"randpkt_core/randpkt_core.c\00", align 1
@__func__.randpkt_parse_type = private unnamed_addr constant [19 x i8] c"randpkt_parse_type\00", align 1
@.str.9 = private unnamed_addr constant [29 x i8] c"randpkt: Type %s not known.\0A\00", align 1

; Function Attrs: null_pointer_is_valid sspstrong uwtable
define hidden i32 @randpkt_parse_type(ptr noundef %0) #1 {
  %2 = alloca i32, align 4
  %3 = alloca ptr, align 8
  %4 = alloca i32, align 4
  %5 = alloca i32, align 4
  %6 = alloca i32, align 4
  store ptr %0, ptr %3, align 8
  call void @llvm.lifetime.start.p0(i64 4, ptr %4) #13
  store i32 23, ptr %4, align 4
  call void @llvm.lifetime.start.p0(i64 4, ptr %5) #13
  %7 = load ptr, ptr %3, align 8
  %8 = icmp ne ptr %7, null
  br i1 %8, label %9, label %13

9:                                                ; preds = %1
  %10 = load ptr, ptr %3, align 8
  %11 = call i32 @g_strcmp0(ptr noundef %10, ptr noundef @.str.6)
  %12 = icmp ne i32 %11, 0
  br i1 %12, label %20, label %13

13:                                               ; preds = %9, %1
  %14 = load i32, ptr %4, align 4
  %15 = call i32 @g_random_int_range(i32 noundef 0, i32 noundef %14)
  %16 = sext i32 %15 to i64
  %17 = getelementptr [23 x %struct.randpkt_example], ptr @examples, i64 0, i64 %16
  %18 = getelementptr inbounds nuw %struct.randpkt_example, ptr %17, i32 0, i32 2
  %19 = load i32, ptr %18, align 16
  store i32 %19, ptr %2, align 4
  store i32 1, ptr %6, align 4
  br label %46

20:                                               ; preds = %9
  store i32 0, ptr %5, align 4
  br label %21

21:                                               ; preds = %41, %20
  %22 = load i32, ptr %5, align 4
  %23 = load i32, ptr %4, align 4
  %24 = icmp slt i32 %22, %23
  br i1 %24, label %25, label %44

25:                                               ; preds = %21
  %26 = load i32, ptr %5, align 4
  %27 = sext i32 %26 to i64
  %28 = getelementptr [23 x %struct.randpkt_example], ptr @examples, i64 0, i64 %27
  %29 = getelementptr inbounds nuw %struct.randpkt_example, ptr %28, i32 0, i32 0
  %30 = load ptr, ptr %29, align 16
  %31 = load ptr, ptr %3, align 8
  %32 = call i32 @g_strcmp0(ptr noundef %30, ptr noundef %31)
  %33 = icmp eq i32 %32, 0
  br i1 %33, label %34, label %40

34:                                               ; preds = %25
  %35 = load i32, ptr %5, align 4
  %36 = sext i32 %35 to i64
  %37 = getelementptr [23 x %struct.randpkt_example], ptr @examples, i64 0, i64 %36
  %38 = getelementptr inbounds nuw %struct.randpkt_example, ptr %37, i32 0, i32 2
  %39 = load i32, ptr %38, align 16
  store i32 %39, ptr %2, align 4
  store i32 1, ptr %6, align 4
  br label %46

40:                                               ; preds = %25
  br label %41

41:                                               ; preds = %40
  %42 = load i32, ptr %5, align 4
  %43 = add i32 %42, 1
  store i32 %43, ptr %5, align 4
  br label %21, !llvm.loop !13

44:                                               ; preds = %21
  %45 = load ptr, ptr %3, align 8
  call void (ptr, i32, ptr, i64, ptr, ptr, ...) @ws_log_fatal_full(ptr noundef @.str.7, i32 noundef 7, ptr noundef @.str.8, i64 noundef 720, ptr noundef @__func__.randpkt_parse_type, ptr noundef @.str.9, ptr noundef %45) #17
  unreachable

46:                                               ; preds = %34, %13
  call void @llvm.lifetime.end.p0(i64 4, ptr %5) #13
  call void @llvm.lifetime.end.p0(i64 4, ptr %4) #13
  %47 = load i32, ptr %2, align 4
  ret i32 %47
}