; Function Attrs: null_pointer_is_valid sspstrong uwtable
define hidden i32 @randpkt_parse_type(ptr noundef %0) local_unnamed_addr #1 {
  %.not = icmp eq ptr %0, null
  br i1 %.not, label %4, label %2

2:                                                ; preds = %1
  %3 = tail call i32 @g_strcmp0(ptr noundef nonnull %0, ptr noundef nonnull @.str.6)
  %.not12 = icmp eq i32 %3, 0
  br i1 %.not12, label %4, label %.preheader

4:                                                ; preds = %2, %1
  %5 = tail call i32 @g_random_int_range(i32 noundef 0, i32 noundef 23)
  %6 = sext i32 %5 to i64
  %7 = getelementptr [23 x %struct.randpkt_example], ptr @examples, i64 0, i64 %6, i32 2
  br label %16

8:                                                ; preds = %.preheader
  %indvars.iv.next = add nuw nsw i64 %indvars.iv, 1
  %exitcond.not = icmp eq i64 %indvars.iv.next, 23
  br i1 %exitcond.not, label %15, label %.preheader, !llvm.loop !23

.preheader:                                       ; preds = %2, %8
  %indvars.iv = phi i64 [ %indvars.iv.next, %8 ], [ 0, %2 ]
  %9 = getelementptr [23 x %struct.randpkt_example], ptr @examples, i64 0, i64 %indvars.iv
  %10 = load ptr, ptr %9, align 16
  %11 = tail call i32 @g_strcmp0(ptr noundef %10, ptr noundef nonnull %0)
  %12 = icmp eq i32 %11, 0
  br i1 %12, label %13, label %8

13:                                               ; preds = %.preheader
  %14 = getelementptr inbounds nuw i8, ptr %9, i64 16
  br label %16

15:                                               ; preds = %8
  tail call void (ptr, i32, ptr, i64, ptr, ptr, ...) @ws_log_fatal_full(ptr noundef nonnull @.str.7, i32 noundef 7, ptr noundef nonnull @.str.8, i64 noundef 720, ptr noundef nonnull @__func__.randpkt_parse_type, ptr noundef nonnull @.str.9, ptr noundef nonnull %0) #12
  unreachable

16:                                               ; preds = %13, %4
  %.010.in = phi ptr [ %14, %13 ], [ %7, %4 ]
  %.010 = load i32, ptr %.010.in, align 16
  ret i32 %.010
}